target datalayout = "e-m:e-p270:32:32-p271:32:32-p272:64:64-i64:64-i128:128-f80:128-n8:16:32:64-S128"
target triple = "x86_64-pc-linux-gnu"

%"class.Ipopt::Vector" = type <{ %"class.Ipopt::TaggedObject", %"class.Ipopt::SmartPtr.5", %"class.Ipopt::CachedResults", i32, [4 x i8], double, i32, [4 x i8], double, i32, [4 x i8], double, i32, [4 x i8], double, i32, [4 x i8], double, i32, [4 x i8], double, i32, [4 x i8], double, i32, i8, [3 x i8] }>
%"class.Ipopt::TaggedObject" = type { %"class.Ipopt::ReferencedObject.base", %"class.Ipopt::Subject", i32, i32 }
%"class.Ipopt::ReferencedObject.base" = type <{ ptr, i32 }>
%"class.Ipopt::Subject" = type { ptr, %"class.std::vector.0" }
%"class.std::vector.0" = type { %"struct.std::_Vector_base.1" }
%"struct.std::_Vector_base.1" = type { %"struct.std::_Vector_base<Ipopt::Observer *, std::allocator<Ipopt::Observer *>>::_Vector_impl" }
%"struct.std::_Vector_base<Ipopt::Observer *, std::allocator<Ipopt::Observer *>>::_Vector_impl" = type { %"struct.std::_Vector_base<Ipopt::Observer *, std::allocator<Ipopt::Observer *>>::_Vector_impl_data" }
%"struct.std::_Vector_base<Ipopt::Observer *, std::allocator<Ipopt::Observer *>>::_Vector_impl_data" = type { ptr, ptr, ptr }
%"class.Ipopt::SmartPtr.5" = type { ptr }
%"class.Ipopt::CachedResults" = type { ptr, i32, ptr }
%"class.Ipopt::SmartPtr.9" = type { ptr }
%"class.Ipopt::ReferencedObject" = type <{ ptr, i32, [4 x i8] }>

; Function Attrs: mustprogress nounwind uwtable
define linkonce_odr noundef i32 @_ZNK5Ipopt16ReferencedObject14ReferenceCountEv(ptr noundef nonnull align 8 dereferenceable(12) %0) #1 comdat align 2 {
  %2 = alloca ptr, align 8
  store ptr %0, ptr %2, align 8
  %3 = load ptr, ptr %2, align 8
  %4 = getelementptr inbounds %"class.Ipopt::ReferencedObject", ptr %3, i32 0, i32 1
  %5 = load i32, ptr %4, align 8
  ret i32 %5
}

; Function Attrs: mustprogress nounwind uwtable
define linkonce_odr void @_ZNK5Ipopt16ReferencedObject10ReleaseRefEPKNS_10ReferencerE(ptr noundef nonnull align 8 dereferenceable(12) %0, ptr noundef %1) #1 comdat align 2 {
  %3 = alloca ptr, align 8
  %4 = alloca ptr, align 8
  store ptr %0, ptr %3, align 8
  store ptr %1, ptr %4, align 8
  %5 = load ptr, ptr %3, align 8
  %6 = getelementptr inbounds %"class.Ipopt::ReferencedObject", ptr %5, i32 0, i32 1
  %7 = load i32, ptr %6, align 8
  %8 = add nsw i32 %7, -1
  store i32 %8, ptr %6, align 8
  ret void
}

; Function Attrs: mustprogress nounwind uwtable
define linkonce_odr void @_ZNK5Ipopt16ReferencedObject6AddRefEPKNS_10ReferencerE(ptr noundef nonnull align 8 dereferenceable(12) %0, ptr noundef %1) #1 comdat align 2 {
  %3 = alloca ptr, align 8
  %4 = alloca ptr, align 8
  store ptr %0, ptr %3, align 8
  store ptr %1, ptr %4, align 8
  %5 = load ptr, ptr %3, align 8
  %6 = getelementptr inbounds %"class.Ipopt::ReferencedObject", ptr %5, i32 0, i32 1
  %7 = load i32, ptr %6, align 8
  %8 = add nsw i32 %7, 1
  store i32 %8, ptr %6, align 8
  ret void
}

; Function Attrs: mustprogress nounwind uwtable
define linkonce_odr void @_ZN5Ipopt8SmartPtrINS_6VectorEE15ReleasePointer_Ev(ptr noundef nonnull align 8 dereferenceable(8) %0) #1 comdat align 2 {
  %2 = alloca ptr, align 8
  store ptr %0, ptr %2, align 8
  %3 = load ptr, ptr %2, align 8
  %4 = getelementptr inbounds %"class.Ipopt::SmartPtr.9", ptr %3, i32 0, i32 0
  %5 = load ptr, ptr %4, align 8
  %6 = icmp ne ptr %5, null
  br i1 %6, label %7, label %24

7:                                                ; preds = %1
  %8 = getelementptr inbounds %"class.Ipopt::SmartPtr.9", ptr %3, i32 0, i32 0
  %9 = load ptr, ptr %8, align 8
  call void @_ZNK5Ipopt16ReferencedObject10ReleaseRefEPKNS_10ReferencerE(ptr noundef nonnull align 8 dereferenceable(12) %9, ptr noundef %3)
  %10 = getelementptr inbounds %"class.Ipopt::SmartPtr.9", ptr %3, i32 0, i32 0
  %11 = load ptr, ptr %10, align 8
  %12 = call noundef i32 @_ZNK5Ipopt16ReferencedObject14ReferenceCountEv(ptr noundef nonnull align 8 dereferenceable(12) %11)
  %13 = icmp eq i32 %12, 0
  br i1 %13, label %14, label %23

14:                                               ; preds = %7
  %15 = getelementptr inbounds %"class.Ipopt::SmartPtr.9", ptr %3, i32 0, i32 0
  %16 = load ptr, ptr %15, align 8
  %17 = icmp eq ptr %16, null
  br i1 %17, label %22, label %18

18:                                               ; preds = %14
  %19 = load ptr, ptr %16, align 8
  %20 = getelementptr inbounds ptr, ptr %19, i64 1
  %21 = load ptr, ptr %20, align 8
  call void %21(ptr noundef nonnull align 8 dereferenceable(205) %16) #10
  br label %22

22:                                               ; preds = %18, %14
  br label %23

23:                                               ; preds = %22, %7
  br label %24

24:                                               ; preds = %23, %1
  ret void
}

; Function Attrs: mustprogress uwtable
define linkonce_odr noundef nonnull align 8 dereferenceable(8) ptr @_ZN5Ipopt8SmartPtrINS_6VectorEE14SetFromRawPtr_EPS1_(ptr noundef nonnull align 8 dereferenceable(8) %0, ptr noundef %1) #0 comdat align 2 {
  %3 = alloca ptr, align 8
  %4 = alloca ptr, align 8
  store ptr %0, ptr %3, align 8
  store ptr %1, ptr %4, align 8
  %5 = load ptr, ptr %3, align 8
  %6 = load ptr, ptr %4, align 8
  %7 = icmp ne ptr %6, null
  br i1 %7, label %8, label %10

8:                                                ; preds = %2
  %9 = load ptr, ptr %4, align 8
  call void @_ZNK5Ipopt16ReferencedObject6AddRefEPKNS_10ReferencerE(ptr noundef nonnull align 8 dereferenceable(12) %9, ptr noundef %5)
  br label %10

10:                                               ; preds = %8, %2
  call void @_ZN5Ipopt8SmartPtrINS_6VectorEE15ReleasePointer_Ev(ptr noundef nonnull align 8 dereferenceable(8) %5)
  %11 = load ptr, ptr %4, align 8
  %12 = getelementptr inbounds %"class.Ipopt::SmartPtr.9", ptr %5, i32 0, i32 0
  store ptr %11, ptr %12, align 8
  ret ptr %5
}

; Function Attrs: mustprogress nounwind uwtable
define linkonce_odr noundef ptr @_ZNK5Ipopt8SmartPtrIKNS_11VectorSpaceEEptEv(ptr noundef nonnull align 8 dereferenceable(8) %0) #1 comdat align 2 {
  %2 = alloca ptr, align 8
  store ptr %0, ptr %2, align 8
  %3 = load ptr, ptr %2, align 8
  %4 = getelementptr inbounds %"class.Ipopt::SmartPtr.5", ptr %3, i32 0, i32 0
  %5 = load ptr, ptr %4, align 8
  ret ptr %5
}

; Function Attrs: mustprogress uwtable
define linkonce_odr void @_ZN5Ipopt6Vector13AddTwoVectorsEdRKS0_dS2_d(ptr noundef nonnull align 8 dereferenceable(205) %0, double noundef %1, ptr noundef nonnull align 8 dereferenceable(205) %2, double noundef %3, ptr noundef nonnull align 8 dereferenceable(205) %4, double noundef %5) #0 comdat align 2 {
  %7 = alloca ptr, align 8
  %8 = alloca double, align 8
  %9 = alloca ptr, align 8
  %10 = alloca double, align 8
  %11 = alloca ptr, align 8
  %12 = alloca double, align 8
  store ptr %0, ptr %7, align 8
  store double %1, ptr %8, align 8
  store ptr %2, ptr %9, align 8
  store double %3, ptr %10, align 8
  store ptr %4, ptr %11, align 8
  store double %5, ptr %12, align 8
  %13 = load ptr, ptr %7, align 8
  %14 = load double, ptr %8, align 8
  %15 = load ptr, ptr %9, align 8
  %16 = load double, ptr %10, align 8
  %17 = load ptr, ptr %11, align 8
  %18 = load double, ptr %12, align 8
  %19 = load ptr, ptr %13, align 8
  %20 = getelementptr inbounds ptr, ptr %19, i64 24
  %21 = load ptr, ptr %20, align 8
  call void %21(ptr noundef nonnull align 8 dereferenceable(205) %13, double noundef %14, ptr noundef nonnull align 8 dereferenceable(205) %15, double noundef %16, ptr noundef nonnull align 8 dereferenceable(205) %17, double noundef %18)
  call void @_ZN5Ipopt12TaggedObject13ObjectChangedEv(ptr noundef nonnull align 8 dereferenceable(56) %13)
  ret void
}

; Function Attrs: mustprogress nounwind uwtable
define linkonce_odr void @_ZN5Ipopt8SmartPtrINS_6VectorEED2Ev(ptr noundef nonnull align 8 dereferenceable(8) %0) unnamed_addr #1 comdat align 2 {
  %2 = alloca ptr, align 8
  store ptr %0, ptr %2, align 8
  %3 = load ptr, ptr %2, align 8
  call void @_ZN5Ipopt8SmartPtrINS_6VectorEE15ReleasePointer_Ev(ptr noundef nonnull align 8 dereferenceable(8) %3)
  ret void
}

; Function Attrs: mustprogress nounwind uwtable
define linkonce_odr noundef nonnull align 8 dereferenceable(205) ptr @_ZNK5Ipopt8SmartPtrINS_6VectorEEdeEv(ptr noundef nonnull align 8 dereferenceable(8) %0) #1 comdat align 2 {
  %2 = alloca ptr, align 8
  store ptr %0, ptr %2, align 8
  %3 = load ptr, ptr %2, align 8
  %4 = getelementptr inbounds %"class.Ipopt::SmartPtr.9", ptr %3, i32 0, i32 0
  %5 = load ptr, ptr %4, align 8
  ret ptr %5
}

; Function Attrs: mustprogress nounwind uwtable
define linkonce_odr noundef ptr @_ZNK5Ipopt8SmartPtrINS_6VectorEEptEv(ptr noundef nonnull align 8 dereferenceable(8) %0) #1 comdat align 2 {
  %2 = alloca ptr, align 8
  store ptr %0, ptr %2, align 8
  %3 = load ptr, ptr %2, align 8
  %4 = getelementptr inbounds %"class.Ipopt::SmartPtr.9", ptr %3, i32 0, i32 0
  %5 = load ptr, ptr %4, align 8
  ret ptr %5
}

; Function Attrs: mustprogress uwtable
define linkonce_odr void @_ZN5Ipopt8SmartPtrINS_6VectorEEC2EPS1_(ptr noundef nonnull align 8 dereferenceable(8) %0, ptr noundef %1) unnamed_addr #0 comdat align 2 {
  %3 = alloca ptr, align 8
  %4 = alloca ptr, align 8
  store ptr %0, ptr %3, align 8
  store ptr %1, ptr %4, align 8
  %5 = load ptr, ptr %3, align 8
  %6 = getelementptr inbounds %"class.Ipopt::SmartPtr.9", ptr %5, i32 0, i32 0
  store ptr null, ptr %6, align 8
  %7 = load ptr, ptr %4, align 8
  %8 = call noundef nonnull align 8 dereferenceable(8) ptr @_ZN5Ipopt8SmartPtrINS_6VectorEE14SetFromRawPtr_EPS1_(ptr noundef nonnull align 8 dereferenceable(8) %5, ptr noundef %7)
  ret void
}

; Function Attrs: mustprogress uwtable
define linkonce_odr noundef ptr @_ZNK5Ipopt6Vector7MakeNewEv(ptr noundef nonnull align 8 dereferenceable(205) %0) #0 comdat align 2 {
  %2 = alloca ptr, align 8
  store ptr %0, ptr %2, align 8
  %3 = load ptr, ptr %2, align 8
  %4 = getelementptr inbounds %"class.Ipopt::Vector", ptr %3, i32 0, i32 1
  %5 = call noundef ptr @_ZNK5Ipopt8SmartPtrIKNS_11VectorSpaceEEptEv(ptr noundef nonnull align 8 dereferenceable(8) %4)
  %6 = load ptr, ptr %5, align 8
  %7 = getelementptr inbounds ptr, ptr %6, i64 2
  %8 = load ptr, ptr %7, align 8
  %9 = call noundef ptr %8(ptr noundef nonnull align 8 dereferenceable(16) %5)
  ret ptr %9
}

; Function Attrs: mustprogress uwtable
define linkonce_odr void @_ZN5Ipopt6Vector17ElementWiseDivideERKS0_(ptr noundef nonnull align 8 dereferenceable(205) %0, ptr noundef nonnull align 8 dereferenceable(205) %1) #0 comdat align 2 {
  %3 = alloca ptr, align 8
  %4 = alloca ptr, align 8
  store ptr %0, ptr %3, align 8
  store ptr %1, ptr %4, align 8
  %5 = load ptr, ptr %3, align 8
  %6 = load ptr, ptr %4, align 8
  %7 = load ptr, ptr %5, align 8
  %8 = getelementptr inbounds ptr, ptr %7, i64 10
  %9 = load ptr, ptr %8, align 8
  call void %9(ptr noundef nonnull align 8 dereferenceable(205) %5, ptr noundef nonnull align 8 dereferenceable(205) %6)
  call void @_ZN5Ipopt12TaggedObject13ObjectChangedEv(ptr noundef nonnull align 8 dereferenceable(56) %5)
  ret void
}

; Function Attrs: mustprogress uwtable
define linkonce_odr void @_ZN5Ipopt6Vector12AddOneVectorEdRKS0_d(ptr noundef nonnull align 8 dereferenceable(205) %0, double noundef %1, ptr noundef nonnull align 8 dereferenceable(205) %2, double noundef %3) #0 comdat align 2 {
  %5 = alloca ptr, align 8
  %6 = alloca double, align 8
  %7 = alloca ptr, align 8
  %8 = alloca double, align 8
  store ptr %0, ptr %5, align 8
  store double %1, ptr %6, align 8
  store ptr %2, ptr %7, align 8
  store double %3, ptr %8, align 8
  %9 = load ptr, ptr %5, align 8
  %10 = load double, ptr %6, align 8
  %11 = load ptr, ptr %7, align 8
  %12 = load ptr, ptr %7, align 8
  %13 = load double, ptr %8, align 8
  call void @_ZN5Ipopt6Vector13AddTwoVectorsEdRKS0_dS2_d(ptr noundef nonnull align 8 dereferenceable(205) %9, double noundef %10, ptr noundef nonnull align 8 dereferenceable(205) %11, double noundef 0.000000e+00, ptr noundef nonnull align 8 dereferenceable(205) %12, double noundef %13)
  ret void
}

; Function Attrs: mustprogress uwtable
define void @_ZN5Ipopt6Vector21AddVectorQuotientImplEdRKS0_S2_d(ptr noundef nonnull align 8 dereferenceable(205) %0, double noundef %1, ptr noundef nonnull align 8 dereferenceable(205) %2, ptr noundef nonnull align 8 dereferenceable(205) %3, double noundef %4) unnamed_addr #0 align 2 personality ptr @__gxx_personality_v0 {
  %6 = alloca ptr, align 8
  %7 = alloca double, align 8
  %8 = alloca ptr, align 8
  %9 = alloca ptr, align 8
  %10 = alloca double, align 8
  %11 = alloca %"class.Ipopt::SmartPtr.9", align 8
  %12 = alloca ptr, align 8
  %13 = alloca i32, align 4
  store ptr %0, ptr %6, align 8
  store double %1, ptr %7, align 8
  store ptr %2, ptr %8, align 8
  store ptr %3, ptr %9, align 8
  store double %4, ptr %10, align 8
  %14 = load ptr, ptr %6, align 8
  %15 = load double, ptr %10, align 8
  %16 = fcmp oeq double %15, 0.000000e+00
  br i1 %16, label %17, label %21

17:                                               ; preds = %5
  %18 = load double, ptr %7, align 8
  %19 = load ptr, ptr %8, align 8
  call void @_ZN5Ipopt6Vector12AddOneVectorEdRKS0_d(ptr noundef nonnull align 8 dereferenceable(205) %14, double noundef %18, ptr noundef nonnull align 8 dereferenceable(205) %19, double noundef 0.000000e+00)
  %20 = load ptr, ptr %9, align 8
  call void @_ZN5Ipopt6Vector17ElementWiseDivideERKS0_(ptr noundef nonnull align 8 dereferenceable(205) %14, ptr noundef nonnull align 8 dereferenceable(205) %20)
  br label %40

21:                                               ; preds = %5
  %22 = call noundef ptr @_ZNK5Ipopt6Vector7MakeNewEv(ptr noundef nonnull align 8 dereferenceable(205) %14)
  call void @_ZN5Ipopt8SmartPtrINS_6VectorEEC2EPS1_(ptr noundef nonnull align 8 dereferenceable(8) %11, ptr noundef %22)
  %23 = invoke noundef ptr @_ZNK5Ipopt8SmartPtrINS_6VectorEEptEv(ptr noundef nonnull align 8 dereferenceable(8) %11)
          to label %24 unwind label %36

24:                                               ; preds = %21
  %25 = load ptr, ptr %8, align 8
  invoke void @_ZN5Ipopt6Vector4CopyERKS0_(ptr noundef nonnull align 8 dereferenceable(205) %23, ptr noundef nonnull align 8 dereferenceable(205) %25)
          to label %26 unwind label %36

26:                                               ; preds = %24
  %27 = invoke noundef ptr @_ZNK5Ipopt8SmartPtrINS_6VectorEEptEv(ptr noundef nonnull align 8 dereferenceable(8) %11)
          to label %28 unwind label %36

28:                                               ; preds = %26
  %29 = load ptr, ptr %9, align 8
  invoke void @_ZN5Ipopt6Vector17ElementWiseDivideERKS0_(ptr noundef nonnull align 8 dereferenceable(205) %27, ptr noundef nonnull align 8 dereferenceable(205) %29)
          to label %30 unwind label %36

30:                                               ; preds = %28
  %31 = load double, ptr %7, align 8
  %32 = invoke noundef nonnull align 8 dereferenceable(205) ptr @_ZNK5Ipopt8SmartPtrINS_6VectorEEdeEv(ptr noundef nonnull align 8 dereferenceable(8) %11)
          to label %33 unwind label %36

33:                                               ; preds = %30
  %34 = load double, ptr %10, align 8
  invoke void @_ZN5Ipopt6Vector12AddOneVectorEdRKS0_d(ptr noundef nonnull align 8 dereferenceable(205) %14, double noundef %31, ptr noundef nonnull align 8 dereferenceable(205) %32, double noundef %34)
          to label %35 unwind label %36

35:                                               ; preds = %33
  call void @_ZN5Ipopt8SmartPtrINS_6VectorEED2Ev(ptr noundef nonnull align 8 dereferenceable(8) %11) #10
  br label %40

36:                                               ; preds = %33, %30, %28, %26, %24, %21
  %37 = landingpad { ptr, i32 }
          cleanup
  %38 = extractvalue { ptr, i32 } %37, 0
  store ptr %38, ptr %12, align 8
  %39 = extractvalue { ptr, i32 } %37, 1
  store i32 %39, ptr %13, align 4
  call void @_ZN5Ipopt8SmartPtrINS_6VectorEED2Ev(ptr noundef nonnull align 8 dereferenceable(8) %11) #10
  br label %41

40:                                               ; preds = %35, %17
  ret void

41:                                               ; preds = %36
  %42 = load ptr, ptr %12, align 8
  %43 = load i32, ptr %13, align 4
  %44 = insertvalue { ptr, i32 } poison, ptr %42, 0
  %45 = insertvalue { ptr, i32 } %44, i32 %43, 1
  resume { ptr, i32 } %45
}