; Function Attrs: mustprogress uwtable
define void @_ZN5Ipopt6Vector21AddVectorQuotientImplEdRKS0_S2_d(ptr noundef nonnull align 8 dereferenceable(205) %0, double noundef %1, ptr noundef nonnull align 8 dereferenceable(205) %2, ptr noundef nonnull align 8 dereferenceable(205) %3, double noundef %4) unnamed_addr #0 align 2 personality ptr @__gxx_personality_v0 {
  %6 = fcmp oeq double %4, 0.000000e+00
  br i1 %6, label %7, label %14

7:                                                ; preds = %5
  %8 = load ptr, ptr %0, align 8
  %9 = getelementptr inbounds i8, ptr %8, i64 192
  %10 = load ptr, ptr %9, align 8
  tail call void %10(ptr noundef nonnull align 8 dereferenceable(205) %0, double noundef %1, ptr noundef nonnull align 8 dereferenceable(205) %2, double noundef 0.000000e+00, ptr noundef nonnull align 8 dereferenceable(205) %2, double noundef 0.000000e+00)
  tail call void @_ZN5Ipopt12TaggedObject13ObjectChangedEv(ptr noundef nonnull align 8 dereferenceable(56) %0)
  %11 = load ptr, ptr %0, align 8
  %12 = getelementptr inbounds i8, ptr %11, i64 80
  %13 = load ptr, ptr %12, align 8
  tail call void %13(ptr noundef nonnull align 8 dereferenceable(205) %0, ptr noundef nonnull align 8 dereferenceable(205) %3)
  tail call void @_ZN5Ipopt12TaggedObject13ObjectChangedEv(ptr noundef nonnull align 8 dereferenceable(56) %0)
  br label %_ZN5Ipopt8SmartPtrINS_6VectorEED2Ev.exit

14:                                               ; preds = %5
  %15 = getelementptr inbounds i8, ptr %0, i64 56
  %16 = load ptr, ptr %15, align 8
  %17 = load ptr, ptr %16, align 8
  %18 = getelementptr inbounds i8, ptr %17, i64 16
  %19 = load ptr, ptr %18, align 8
  %20 = tail call noundef ptr %19(ptr noundef nonnull align 8 dereferenceable(16) %16)
  %.not.i.i = icmp eq ptr %20, null
  br i1 %.not.i.i, label %_ZN5Ipopt8SmartPtrINS_6VectorEEC2EPS1_.exit, label %21

21:                                               ; preds = %14
  %22 = getelementptr inbounds i8, ptr %20, i64 8
  %23 = load i32, ptr %22, align 8
  %24 = add nsw i32 %23, 1
  store i32 %24, ptr %22, align 8
  br label %_ZN5Ipopt8SmartPtrINS_6VectorEEC2EPS1_.exit

_ZN5Ipopt8SmartPtrINS_6VectorEEC2EPS1_.exit:      ; preds = %21, %14
  invoke void @_ZN5Ipopt6Vector4CopyERKS0_(ptr noundef nonnull align 8 dereferenceable(205) %20, ptr noundef nonnull align 8 dereferenceable(205) %2)
          to label %25 unwind label %40

25:                                               ; preds = %_ZN5Ipopt8SmartPtrINS_6VectorEEC2EPS1_.exit
  %26 = load ptr, ptr %20, align 8
  %27 = getelementptr inbounds i8, ptr %26, i64 80
  %28 = load ptr, ptr %27, align 8
  invoke void %28(ptr noundef nonnull align 8 dereferenceable(205) %20, ptr noundef nonnull align 8 dereferenceable(205) %3)
          to label %.noexc unwind label %.thread

.noexc:                                           ; preds = %25
  invoke void @_ZN5Ipopt12TaggedObject13ObjectChangedEv(ptr noundef nonnull align 8 dereferenceable(56) %20)
          to label %_ZN5Ipopt6Vector17ElementWiseDivideERKS0_.exit unwind label %.thread

_ZN5Ipopt6Vector17ElementWiseDivideERKS0_.exit:   ; preds = %.noexc
  %29 = load ptr, ptr %0, align 8
  %30 = getelementptr inbounds i8, ptr %29, i64 192
  %31 = load ptr, ptr %30, align 8
  invoke void %31(ptr noundef nonnull align 8 dereferenceable(205) %0, double noundef %1, ptr noundef nonnull align 8 dereferenceable(205) %20, double noundef 0.000000e+00, ptr noundef nonnull align 8 dereferenceable(205) %20, double noundef %4)
          to label %.noexc11 unwind label %.thread

.noexc11:                                         ; preds = %_ZN5Ipopt6Vector17ElementWiseDivideERKS0_.exit
  invoke void @_ZN5Ipopt12TaggedObject13ObjectChangedEv(ptr noundef nonnull align 8 dereferenceable(56) %0)
          to label %_ZN5Ipopt6Vector12AddOneVectorEdRKS0_d.exit unwind label %.thread

_ZN5Ipopt6Vector12AddOneVectorEdRKS0_d.exit:      ; preds = %.noexc11
  %32 = getelementptr inbounds i8, ptr %20, i64 8
  %33 = load i32, ptr %32, align 8
  %34 = add nsw i32 %33, -1
  store i32 %34, ptr %32, align 8
  %35 = icmp eq i32 %34, 0
  br i1 %35, label %36, label %_ZN5Ipopt8SmartPtrINS_6VectorEED2Ev.exit

36:                                               ; preds = %_ZN5Ipopt6Vector12AddOneVectorEdRKS0_d.exit
  %37 = load ptr, ptr %20, align 8
  %38 = getelementptr inbounds i8, ptr %37, i64 8
  %39 = load ptr, ptr %38, align 8
  tail call void %39(ptr noundef nonnull align 8 dereferenceable(205) %20) #10
  br label %_ZN5Ipopt8SmartPtrINS_6VectorEED2Ev.exit

.thread:                                          ; preds = %.noexc11, %_ZN5Ipopt6Vector17ElementWiseDivideERKS0_.exit, %.noexc, %25
  %lpad.thr_comm = landingpad { ptr, i32 }
          cleanup
  br label %41

40:                                               ; preds = %_ZN5Ipopt8SmartPtrINS_6VectorEEC2EPS1_.exit
  %lpad.thr_comm.split-lp = landingpad { ptr, i32 }
          cleanup
  br i1 %.not.i.i, label %_ZN5Ipopt8SmartPtrINS_6VectorEED2Ev.exit15, label %41

41:                                               ; preds = %.thread, %40
  %lpad.phi24 = phi { ptr, i32 } [ %lpad.thr_comm, %.thread ], [ %lpad.thr_comm.split-lp, %40 ]
  %42 = getelementptr inbounds i8, ptr %20, i64 8
  %43 = load i32, ptr %42, align 8
  %44 = add nsw i32 %43, -1
  store i32 %44, ptr %42, align 8
  %45 = icmp eq i32 %44, 0
  br i1 %45, label %46, label %_ZN5Ipopt8SmartPtrINS_6VectorEED2Ev.exit15

46:                                               ; preds = %41
  %47 = load ptr, ptr %20, align 8
  %48 = getelementptr inbounds i8, ptr %47, i64 8
  %49 = load ptr, ptr %48, align 8
  tail call void %49(ptr noundef nonnull align 8 dereferenceable(205) %20) #10
  br label %_ZN5Ipopt8SmartPtrINS_6VectorEED2Ev.exit15

_ZN5Ipopt8SmartPtrINS_6VectorEED2Ev.exit15:       ; preds = %40, %41, %46
  %lpad.phi25 = phi { ptr, i32 } [ %lpad.thr_comm.split-lp, %40 ], [ %lpad.phi24, %41 ], [ %lpad.phi24, %46 ]
  resume { ptr, i32 } %lpad.phi25

_ZN5Ipopt8SmartPtrINS_6VectorEED2Ev.exit:         ; preds = %36, %_ZN5Ipopt6Vector12AddOneVectorEdRKS0_d.exit, %7
  ret void
}